(dp0
I0
V\u4e00
p1
sI1
V\u4e01
p2
sI2
V\u4e03
p3
sI3
V\u4e07
p4
sI4
V\u4e08
p5
sI5
V\u4e09
p6
sI6
V\u4e0a
p7
sI7
V\u4e0b
p8
sI8
V\u4e0d
p9
sI9
V\u4e0e
p10
sI10
V\u4e11
p11
sI11
V\u4e13
p12
sI12
V\u4e14
p13
sI13
V\u4e16
p14
sI14
V\u4e18
p15
sI15
V\u4e19
p16
sI16
V\u4e1a
p17
sI17
V\u4e1b
p18
sI18
V\u4e1c
p19
sI19
V\u4e1d
p20
sI20
V\u4e22
p21
sI21
V\u4e24
p22
sI22
V\u4e25
p23
sI23
V\u4e27
p24
sI24
V\u4e2a
p25
sI25
V\u4e2b
p26
sI26
V\u4e2d
p27
sI27
V\u4e30
p28
sI28
V\u4e32
p29
sI29
V\u4e34
p30
sI30
V\u4e38
p31
s.